target datalayout = "e-m:e-p270:32:32-p271:32:32-p272:64:64-i64:64-i128:128-f80:128-n8:16:32:64-S128"
target triple = "x86_64-pc-linux-gnu"

; Function Attrs: nounwind uwtable
define dso_local void @luaSaveOnRegistry(ptr noundef %0, ptr noundef %1, ptr noundef %2) #0 {
  %4 = alloca ptr, align 8
  %5 = alloca ptr, align 8
  %6 = alloca ptr, align 8
  store ptr %0, ptr %4, align 8, !tbaa !5
  store ptr %1, ptr %5, align 8, !tbaa !10
  store ptr %2, ptr %6, align 8, !tbaa !12
  %7 = load ptr, ptr %4, align 8, !tbaa !5
  %8 = load ptr, ptr %5, align 8, !tbaa !10
  call void @lua_pushstring(ptr noundef %7, ptr noundef %8)
  %9 = load ptr, ptr %6, align 8, !tbaa !12
  %10 = icmp ne ptr %9, null
  br i1 %10, label %11, label %14

11:                                               ; preds = %3
  %12 = load ptr, ptr %4, align 8, !tbaa !5
  %13 = load ptr, ptr %6, align 8, !tbaa !12
  call void @lua_pushlightuserdata(ptr noundef %12, ptr noundef %13)
  br label %16

14:                                               ; preds = %3
  %15 = load ptr, ptr %4, align 8, !tbaa !5
  call void @lua_pushnil(ptr noundef %15)
  br label %16

16:                                               ; preds = %14, %11
  %17 = load ptr, ptr %4, align 8, !tbaa !5
  call void @lua_settable(ptr noundef %17, i32 noundef -10000)
  ret void
}