; Function Attrs: nounwind uwtable
define dso_local void @luaSaveOnRegistry(ptr noundef %0, ptr noundef %1, ptr noundef %2) local_unnamed_addr #0 {
  tail call void @lua_pushstring(ptr noundef %0, ptr noundef %1) #11
  %.not = icmp eq ptr %2, null
  br i1 %.not, label %5, label %4

4:                                                ; preds = %3
  tail call void @lua_pushlightuserdata(ptr noundef %0, ptr noundef nonnull %2) #11
  br label %6

5:                                                ; preds = %3
  tail call void @lua_pushnil(ptr noundef %0) #11
  br label %6

6:                                                ; preds = %5, %4
  tail call void @lua_settable(ptr noundef %0, i32 noundef -10000) #11
  ret void
}